#include <math.h>
#include <stdio.h>
#include <stdlib.h>
#include <string.h>

main()
{
	int a[300],i=0,j,first,second,t=0,mid;
	scanf("%d",&a[i++]);
	while(scanf(",%d",&a[i++])==1);
	if(i==2)
		printf("No");
	else
	{
		first=a[0];
		for(j=1;j<i-1;++j)
		{
			if(a[j]!=first)
			{
				second=a[j];
				t=1;
				break;
			}
		}
		if(t==0)
			printf("No");
		else
		{
			if(first<second)
			{
				mid=first;
				first=second;
				second=mid;
			}
			for(j=1;j<i-1;++j)
				if(a[j]>second&&a[j]<first)
					second=a[j];
				else if(a[j]>first)
				{
					second=first;
					first=a[j];
				}
			printf("%d",second);
		}
	}
}
		
				
