; ModuleID = '22/375.c'
source_filename = "22/375.c"
target datalayout = "e-m:e-p270:32:32-p271:32:32-p272:64:64-i64:64-f80:128-n8:16:32:64-S128"
target triple = "x86_64-pc-linux-gnu"

@.str = private unnamed_addr constant [3 x i8] c"%d\00", align 1
@.str.1 = private unnamed_addr constant [4 x i8] c",%d\00", align 1
@.str.2 = private unnamed_addr constant [3 x i8] c"No\00", align 1

; Function Attrs: noinline nounwind uwtable
define dso_local i32 @main() #0 {
  %1 = alloca i32, align 4
  %2 = alloca [300 x i32], align 16
  %3 = alloca i32, align 4
  %4 = alloca i32, align 4
  %5 = alloca i32, align 4
  %6 = alloca i32, align 4
  %7 = alloca i32, align 4
  %8 = alloca i32, align 4
  store i32 0, i32* %1, align 4
  store i32 0, i32* %3, align 4
  store i32 0, i32* %7, align 4
  %9 = load i32, i32* %3, align 4
  %10 = add nsw i32 %9, 1
  store i32 %10, i32* %3, align 4
  %11 = sext i32 %9 to i64
  %12 = getelementptr inbounds [300 x i32], [300 x i32]* %2, i64 0, i64 %11
  %13 = call i32 (i8*, ...) @__isoc99_scanf(i8* getelementptr inbounds ([3 x i8], [3 x i8]* @.str, i64 0, i64 0), i32* %12)
  br label %14

14:                                               ; preds = %21, %0
  %15 = load i32, i32* %3, align 4
  %16 = add nsw i32 %15, 1
  store i32 %16, i32* %3, align 4
  %17 = sext i32 %15 to i64
  %18 = getelementptr inbounds [300 x i32], [300 x i32]* %2, i64 0, i64 %17
  %19 = call i32 (i8*, ...) @__isoc99_scanf(i8* getelementptr inbounds ([4 x i8], [4 x i8]* @.str.1, i64 0, i64 0), i32* %18)
  %20 = icmp eq i32 %19, 1
  br i1 %20, label %21, label %22

21:                                               ; preds = %14
  br label %14

22:                                               ; preds = %14
  %23 = load i32, i32* %3, align 4
  %24 = icmp eq i32 %23, 2
  br i1 %24, label %25, label %27

25:                                               ; preds = %22
  %26 = call i32 (i8*, ...) @printf(i8* getelementptr inbounds ([3 x i8], [3 x i8]* @.str.2, i64 0, i64 0))
  br label %111

27:                                               ; preds = %22
  %28 = getelementptr inbounds [300 x i32], [300 x i32]* %2, i64 0, i64 0
  %29 = load i32, i32* %28, align 16
  store i32 %29, i32* %5, align 4
  store i32 1, i32* %4, align 4
  br label %30

30:                                               ; preds = %48, %27
  %31 = load i32, i32* %4, align 4
  %32 = load i32, i32* %3, align 4
  %33 = sub nsw i32 %32, 1
  %34 = icmp slt i32 %31, %33
  br i1 %34, label %35, label %51

35:                                               ; preds = %30
  %36 = load i32, i32* %4, align 4
  %37 = sext i32 %36 to i64
  %38 = getelementptr inbounds [300 x i32], [300 x i32]* %2, i64 0, i64 %37
  %39 = load i32, i32* %38, align 4
  %40 = load i32, i32* %5, align 4
  %41 = icmp ne i32 %39, %40
  br i1 %41, label %42, label %47

42:                                               ; preds = %35
  %43 = load i32, i32* %4, align 4
  %44 = sext i32 %43 to i64
  %45 = getelementptr inbounds [300 x i32], [300 x i32]* %2, i64 0, i64 %44
  %46 = load i32, i32* %45, align 4
  store i32 %46, i32* %6, align 4
  store i32 1, i32* %7, align 4
  br label %51

47:                                               ; preds = %35
  br label %48

48:                                               ; preds = %47
  %49 = load i32, i32* %4, align 4
  %50 = add nsw i32 %49, 1
  store i32 %50, i32* %4, align 4
  br label %30

51:                                               ; preds = %42, %30
  %52 = load i32, i32* %7, align 4
  %53 = icmp eq i32 %52, 0
  br i1 %53, label %54, label %56

54:                                               ; preds = %51
  %55 = call i32 (i8*, ...) @printf(i8* getelementptr inbounds ([3 x i8], [3 x i8]* @.str.2, i64 0, i64 0))
  br label %110

56:                                               ; preds = %51
  %57 = load i32, i32* %5, align 4
  %58 = load i32, i32* %6, align 4
  %59 = icmp slt i32 %57, %58
  br i1 %59, label %60, label %64

60:                                               ; preds = %56
  %61 = load i32, i32* %5, align 4
  store i32 %61, i32* %8, align 4
  %62 = load i32, i32* %6, align 4
  store i32 %62, i32* %5, align 4
  %63 = load i32, i32* %8, align 4
  store i32 %63, i32* %6, align 4
  br label %64

64:                                               ; preds = %60, %56
  store i32 1, i32* %4, align 4
  br label %65

65:                                               ; preds = %104, %64
  %66 = load i32, i32* %4, align 4
  %67 = load i32, i32* %3, align 4
  %68 = sub nsw i32 %67, 1
  %69 = icmp slt i32 %66, %68
  br i1 %69, label %70, label %107

70:                                               ; preds = %65
  %71 = load i32, i32* %4, align 4
  %72 = sext i32 %71 to i64
  %73 = getelementptr inbounds [300 x i32], [300 x i32]* %2, i64 0, i64 %72
  %74 = load i32, i32* %73, align 4
  %75 = load i32, i32* %6, align 4
  %76 = icmp sgt i32 %74, %75
  br i1 %76, label %77, label %89

77:                                               ; preds = %70
  %78 = load i32, i32* %4, align 4
  %79 = sext i32 %78 to i64
  %80 = getelementptr inbounds [300 x i32], [300 x i32]* %2, i64 0, i64 %79
  %81 = load i32, i32* %80, align 4
  %82 = load i32, i32* %5, align 4
  %83 = icmp slt i32 %81, %82
  br i1 %83, label %84, label %89

84:                                               ; preds = %77
  %85 = load i32, i32* %4, align 4
  %86 = sext i32 %85 to i64
  %87 = getelementptr inbounds [300 x i32], [300 x i32]* %2, i64 0, i64 %86
  %88 = load i32, i32* %87, align 4
  store i32 %88, i32* %6, align 4
  br label %103

89:                                               ; preds = %77, %70
  %90 = load i32, i32* %4, align 4
  %91 = sext i32 %90 to i64
  %92 = getelementptr inbounds [300 x i32], [300 x i32]* %2, i64 0, i64 %91
  %93 = load i32, i32* %92, align 4
  %94 = load i32, i32* %5, align 4
  %95 = icmp sgt i32 %93, %94
  br i1 %95, label %96, label %102

96:                                               ; preds = %89
  %97 = load i32, i32* %5, align 4
  store i32 %97, i32* %6, align 4
  %98 = load i32, i32* %4, align 4
  %99 = sext i32 %98 to i64
  %100 = getelementptr inbounds [300 x i32], [300 x i32]* %2, i64 0, i64 %99
  %101 = load i32, i32* %100, align 4
  store i32 %101, i32* %5, align 4
  br label %102

102:                                              ; preds = %96, %89
  br label %103

103:                                              ; preds = %102, %84
  br label %104

104:                                              ; preds = %103
  %105 = load i32, i32* %4, align 4
  %106 = add nsw i32 %105, 1
  store i32 %106, i32* %4, align 4
  br label %65

107:                                              ; preds = %65
  %108 = load i32, i32* %6, align 4
  %109 = call i32 (i8*, ...) @printf(i8* getelementptr inbounds ([3 x i8], [3 x i8]* @.str, i64 0, i64 0), i32 %108)
  br label %110

110:                                              ; preds = %107, %54
  br label %111

111:                                              ; preds = %110, %25
  %112 = load i32, i32* %1, align 4
  ret i32 %112
}

declare dso_local i32 @__isoc99_scanf(i8*, ...) #1

declare dso_local i32 @printf(i8*, ...) #1


!llvm.module.flags = !{!0}
!llvm.ident = !{!1}

!0 = !{i32 1, !"wchar_size", i32 4}
!1 = !{!"clang version 10.0.0-4ubuntu1 "}
